; Function Attrs: mustprogress nounwind uwtable
define internal fastcc void @_ZN12_GLOBAL__N_112StmtProfiler18VisitTypeTraitExprEPKN5clang13TypeTraitExprE(ptr noundef nonnull align 8 dereferenceable(18) %0, ptr noundef %1) unnamed_addr #0 align 2 {
  tail call fastcc void @_ZN12_GLOBAL__N_112StmtProfiler9VisitStmtEPKN5clang4StmtE(ptr noundef nonnull align 8 dereferenceable(18) %0, ptr noundef %1)
  %3 = getelementptr inbounds nuw i8, ptr %0, i64 8
  %4 = load ptr, ptr %3, align 8
  %5 = load i32, ptr %1, align 8
  %6 = lshr i32 %5, 18
  %7 = and i32 %6, 255
  %8 = tail call noundef i64 @_ZNK4llvm15SmallVectorBaseIjE4sizeEv(ptr noundef nonnull align 8 dereferenceable(144) %4) #11
  %9 = add i64 %8, 1
  %10 = tail call noundef i64 @_ZNK4llvm15SmallVectorBaseIjE8capacityEv(ptr noundef nonnull align 8 dereferenceable(144) %4) #11
  %.not.i.i.i.i = icmp ugt i64 %9, %10
  br i1 %.not.i.i.i.i, label %11, label %_ZN4llvm16FoldingSetNodeID10AddIntegerEi.exit

11:                                               ; preds = %2
  %12 = getelementptr inbounds nuw i8, ptr %4, i64 16
  tail call void @_ZN4llvm15SmallVectorBaseIjE8grow_podEPvmm(ptr noundef nonnull align 8 dereferenceable(144) %4, ptr noundef nonnull %12, i64 noundef %9, i64 noundef 4) #11
  br label %_ZN4llvm16FoldingSetNodeID10AddIntegerEi.exit

_ZN4llvm16FoldingSetNodeID10AddIntegerEi.exit:    ; preds = %2, %11
  %13 = load ptr, ptr %4, align 8
  %14 = tail call noundef i64 @_ZNK4llvm15SmallVectorBaseIjE4sizeEv(ptr noundef nonnull align 8 dereferenceable(144) %4) #11
  %15 = getelementptr inbounds i32, ptr %13, i64 %14
  store i32 %7, ptr %15, align 1
  %16 = tail call noundef i64 @_ZNK4llvm15SmallVectorBaseIjE4sizeEv(ptr noundef nonnull align 8 dereferenceable(144) %4) #11
  %17 = add i64 %16, 1
  tail call void @_ZN4llvm15SmallVectorBaseIjE8set_sizeEm(ptr noundef nonnull align 8 dereferenceable(144) %4, i64 noundef %17) #11
  %18 = load ptr, ptr %3, align 8
  %19 = getelementptr inbounds nuw i8, ptr %1, i64 4
  %20 = load i32, ptr %19, align 4
  %21 = tail call noundef i64 @_ZNK4llvm15SmallVectorBaseIjE4sizeEv(ptr noundef nonnull align 8 dereferenceable(144) %18) #11
  %22 = add i64 %21, 1
  %23 = tail call noundef i64 @_ZNK4llvm15SmallVectorBaseIjE8capacityEv(ptr noundef nonnull align 8 dereferenceable(144) %18) #11
  %.not.i.i.i.i9 = icmp ugt i64 %22, %23
  br i1 %.not.i.i.i.i9, label %24, label %_ZN4llvm16FoldingSetNodeID10AddIntegerEj.exit

24:                                               ; preds = %_ZN4llvm16FoldingSetNodeID10AddIntegerEi.exit
  %25 = getelementptr inbounds nuw i8, ptr %18, i64 16
  tail call void @_ZN4llvm15SmallVectorBaseIjE8grow_podEPvmm(ptr noundef nonnull align 8 dereferenceable(144) %18, ptr noundef nonnull %25, i64 noundef %22, i64 noundef 4) #11
  br label %_ZN4llvm16FoldingSetNodeID10AddIntegerEj.exit

_ZN4llvm16FoldingSetNodeID10AddIntegerEj.exit:    ; preds = %_ZN4llvm16FoldingSetNodeID10AddIntegerEi.exit, %24
  %26 = load ptr, ptr %18, align 8
  %27 = tail call noundef i64 @_ZNK4llvm15SmallVectorBaseIjE4sizeEv(ptr noundef nonnull align 8 dereferenceable(144) %18) #11
  %28 = getelementptr inbounds i32, ptr %26, i64 %27
  store i32 %20, ptr %28, align 1
  %29 = tail call noundef i64 @_ZNK4llvm15SmallVectorBaseIjE4sizeEv(ptr noundef nonnull align 8 dereferenceable(144) %18) #11
  %30 = add i64 %29, 1
  tail call void @_ZN4llvm15SmallVectorBaseIjE8set_sizeEm(ptr noundef nonnull align 8 dereferenceable(144) %18, i64 noundef %30) #11
  %31 = load i32, ptr %19, align 4
  %.not10 = icmp eq i32 %31, 0
  br i1 %.not10, label %._crit_edge, label %.lr.ph

.lr.ph:                                           ; preds = %_ZN4llvm16FoldingSetNodeID10AddIntegerEj.exit
  %32 = getelementptr inbounds nuw i8, ptr %1, i64 24
  %33 = zext i32 %31 to i64
  br label %34

34:                                               ; preds = %.lr.ph, %34
  %indvars.iv = phi i64 [ 0, %.lr.ph ], [ %indvars.iv.next, %34 ]
  %35 = getelementptr inbounds nuw ptr, ptr %32, i64 %indvars.iv
  %36 = load ptr, ptr %35, align 8
  %.sroa.0.0.copyload.i = load i64, ptr %36, align 8
  %37 = load ptr, ptr %0, align 8
  %38 = getelementptr inbounds nuw i8, ptr %37, i64 32
  %39 = load ptr, ptr %38, align 8
  tail call void %39(ptr noundef nonnull align 8 dereferenceable(18) %0, i64 %.sroa.0.0.copyload.i) #11
  %indvars.iv.next = add nuw nsw i64 %indvars.iv, 1
  %.not = icmp eq i64 %indvars.iv.next, %33
  br i1 %.not, label %._crit_edge, label %34, !llvm.loop !4

._crit_edge:                                      ; preds = %34, %_ZN4llvm16FoldingSetNodeID10AddIntegerEj.exit
  ret void
}